target datalayout = "e-m:e-p270:32:32-p271:32:32-p272:64:64-i64:64-i128:128-f80:128-n8:16:32:64-S128"
target triple = "x86_64-pc-linux-gnu"

%struct.png_struct_def = type { [1 x %struct.__jmp_buf_tag], ptr, ptr, i64, ptr, ptr, ptr, ptr, ptr, ptr, ptr, ptr, ptr, i8, i8, i32, i32, i32, i32, %struct.z_stream_s, ptr, i32, i32, i32, i32, i32, i32, i32, i32, i32, i32, i32, i32, i32, i32, i32, i32, i32, i32, i32, i32, i32, i64, i32, i32, i32, ptr, ptr, ptr, ptr, i64, i32, i32, ptr, i16, i32, i16, i8, i8, i8, i8, i8, i8, i8, i8, i8, i8, i8, i8, i8, i8, i8, i16, i8, i32, %struct.png_color_16_struct, %struct.png_color_16_struct, ptr, i32, i32, %struct.png_xy, i32, i32, i32, i32, i32, ptr, ptr, ptr, ptr, ptr, ptr, %struct.png_color_8_struct, %struct.png_color_8_struct, ptr, %struct.png_color_16_struct, ptr, ptr, ptr, ptr, ptr, ptr, ptr, ptr, ptr, i32, i32, i64, i64, i64, i64, i32, i32, ptr, ptr, i32, [29 x i8], i32, ptr, ptr, i32, i32, ptr, i8, i8, i16, i16, ptr, i32, i8, ptr, ptr, ptr, ptr, ptr, ptr, ptr, i8, i32, i32, i32, i64, %struct.png_unknown_chunk_t, i64, ptr, i64, i32, i32, ptr, [4 x ptr] }
%struct.__jmp_buf_tag = type { [8 x i64], i32, %struct.__sigset_t }
%struct.__sigset_t = type { [16 x i64] }
%struct.z_stream_s = type { ptr, i32, i64, ptr, i32, i64, ptr, ptr, ptr, ptr, ptr, i32, i64, i64 }
%struct.png_xy = type { i32, i32, i32, i32, i32, i32, i32, i32 }
%struct.png_color_8_struct = type { i8, i8, i8, i8, i8 }
%struct.png_color_16_struct = type { i8, i16, i16, i16, i16 }
%struct.png_unknown_chunk_t = type { [5 x i8], ptr, i64, i8 }

@.str = private unnamed_addr constant [34 x i8] c"PNG unsigned integer out of range\00", align 1

; Function Attrs: nounwind uwtable
define i32 @png_get_uint_31(ptr noalias noundef %0, ptr noundef %1) #0 {
  %3 = alloca ptr, align 8
  %4 = alloca ptr, align 8
  %5 = alloca i32, align 4
  store ptr %0, ptr %3, align 8, !tbaa !3
  store ptr %1, ptr %4, align 8, !tbaa !8
  call void @llvm.lifetime.start.p0(i64 4, ptr %5) #7
  %6 = load ptr, ptr %4, align 8, !tbaa !8
  %7 = load i8, ptr %6, align 1, !tbaa !10
  %8 = zext i8 %7 to i32
  %9 = shl i32 %8, 24
  %10 = load ptr, ptr %4, align 8, !tbaa !8
  %11 = getelementptr inbounds i8, ptr %10, i64 1
  %12 = load i8, ptr %11, align 1, !tbaa !10
  %13 = zext i8 %12 to i32
  %14 = shl i32 %13, 16
  %15 = add i32 %9, %14
  %16 = load ptr, ptr %4, align 8, !tbaa !8
  %17 = getelementptr inbounds i8, ptr %16, i64 2
  %18 = load i8, ptr %17, align 1, !tbaa !10
  %19 = zext i8 %18 to i32
  %20 = shl i32 %19, 8
  %21 = add i32 %15, %20
  %22 = load ptr, ptr %4, align 8, !tbaa !8
  %23 = getelementptr inbounds i8, ptr %22, i64 3
  %24 = load i8, ptr %23, align 1, !tbaa !10
  %25 = zext i8 %24 to i32
  %26 = add i32 %21, %25
  store i32 %26, ptr %5, align 4, !tbaa !11
  %27 = load i32, ptr %5, align 4, !tbaa !11
  %28 = icmp ugt i32 %27, 2147483647
  br i1 %28, label %29, label %31

29:                                               ; preds = %2
  %30 = load ptr, ptr %3, align 8, !tbaa !3
  call void @png_error(ptr noundef %30, ptr noundef @.str) #8
  unreachable

31:                                               ; preds = %2
  %32 = load i32, ptr %5, align 4, !tbaa !11
  call void @llvm.lifetime.end.p0(i64 4, ptr %5) #7
  ret i32 %32
}

; Function Attrs: nounwind uwtable
define i32 @png_crc_finish(ptr noalias noundef %0, i32 noundef %1) #0 {
  %3 = alloca ptr, align 8
  %4 = alloca i32, align 4
  store ptr %0, ptr %3, align 8, !tbaa !3
  store i32 %1, ptr %4, align 4, !tbaa !11
  %5 = load ptr, ptr %3, align 8, !tbaa !3
  %6 = load i32, ptr %4, align 4, !tbaa !11
  %7 = call i32 @png_crc_finish_critical(ptr noundef %5, i32 noundef %6, i32 noundef 0)
  ret i32 %7
}

; Function Attrs: nounwind uwtable
define void @png_crc_read(ptr noalias noundef %0, ptr noundef %1, i32 noundef %2) #0 {
  %4 = alloca ptr, align 8
  %5 = alloca ptr, align 8
  %6 = alloca i32, align 4
  store ptr %0, ptr %4, align 8, !tbaa !3
  store ptr %1, ptr %5, align 8, !tbaa !8
  store i32 %2, ptr %6, align 4, !tbaa !11
  %7 = load ptr, ptr %4, align 8, !tbaa !3
  %8 = icmp eq ptr %7, null
  br i1 %8, label %9, label %10

9:                                                ; preds = %3
  br label %19

10:                                               ; preds = %3
  %11 = load ptr, ptr %4, align 8, !tbaa !3
  %12 = load ptr, ptr %5, align 8, !tbaa !8
  %13 = load i32, ptr %6, align 4, !tbaa !11
  %14 = zext i32 %13 to i64
  call void @png_read_data(ptr noundef %11, ptr noundef %12, i64 noundef %14)
  %15 = load ptr, ptr %4, align 8, !tbaa !3
  %16 = load ptr, ptr %5, align 8, !tbaa !8
  %17 = load i32, ptr %6, align 4, !tbaa !11
  %18 = zext i32 %17 to i64
  call void @png_calculate_crc(ptr noundef %15, ptr noundef %16, i64 noundef %18)
  br label %19

19:                                               ; preds = %10, %9
  ret void
}

; Function Attrs: nounwind uwtable
define internal i32 @png_handle_IHDR(ptr noalias noundef %0, ptr noalias noundef %1, i32 noundef %2) #0 {
  %4 = alloca ptr, align 8
  %5 = alloca ptr, align 8
  %6 = alloca i32, align 4
  %7 = alloca [13 x i8], align 1
  %8 = alloca i32, align 4
  %9 = alloca i32, align 4
  %10 = alloca i32, align 4
  %11 = alloca i32, align 4
  %12 = alloca i32, align 4
  %13 = alloca i32, align 4
  %14 = alloca i32, align 4
  store ptr %0, ptr %4, align 8, !tbaa !3
  store ptr %1, ptr %5, align 8, !tbaa !13
  store i32 %2, ptr %6, align 4, !tbaa !11
  call void @llvm.lifetime.start.p0(i64 13, ptr %7) #7
  call void @llvm.lifetime.start.p0(i64 4, ptr %8) #7
  call void @llvm.lifetime.start.p0(i64 4, ptr %9) #7
  call void @llvm.lifetime.start.p0(i64 4, ptr %10) #7
  call void @llvm.lifetime.start.p0(i64 4, ptr %11) #7
  call void @llvm.lifetime.start.p0(i64 4, ptr %12) #7
  call void @llvm.lifetime.start.p0(i64 4, ptr %13) #7
  call void @llvm.lifetime.start.p0(i64 4, ptr %14) #7
  %15 = load ptr, ptr %4, align 8, !tbaa !3
  %16 = getelementptr inbounds nuw %struct.png_struct_def, ptr %15, i32 0, i32 15
  %17 = load i32, ptr %16, align 4, !tbaa !31
  %18 = or i32 %17, 1
  store i32 %18, ptr %16, align 4, !tbaa !31
  %19 = load ptr, ptr %4, align 8, !tbaa !3
  %20 = getelementptr inbounds [13 x i8], ptr %7, i64 0, i64 0
  call void @png_crc_read(ptr noundef %19, ptr noundef %20, i32 noundef 13)
  %21 = load ptr, ptr %4, align 8, !tbaa !3
  %22 = call i32 @png_crc_finish(ptr noundef %21, i32 noundef 0)
  %23 = load ptr, ptr %4, align 8, !tbaa !3
  %24 = getelementptr inbounds [13 x i8], ptr %7, i64 0, i64 0
  %25 = call i32 @png_get_uint_31(ptr noundef %23, ptr noundef %24)
  store i32 %25, ptr %8, align 4, !tbaa !11
  %26 = load ptr, ptr %4, align 8, !tbaa !3
  %27 = getelementptr inbounds [13 x i8], ptr %7, i64 0, i64 0
  %28 = getelementptr inbounds i8, ptr %27, i64 4
  %29 = call i32 @png_get_uint_31(ptr noundef %26, ptr noundef %28)
  store i32 %29, ptr %9, align 4, !tbaa !11
  %30 = getelementptr inbounds [13 x i8], ptr %7, i64 0, i64 8
  %31 = load i8, ptr %30, align 1, !tbaa !10
  %32 = zext i8 %31 to i32
  store i32 %32, ptr %10, align 4, !tbaa !11
  %33 = getelementptr inbounds [13 x i8], ptr %7, i64 0, i64 9
  %34 = load i8, ptr %33, align 1, !tbaa !10
  %35 = zext i8 %34 to i32
  store i32 %35, ptr %11, align 4, !tbaa !11
  %36 = getelementptr inbounds [13 x i8], ptr %7, i64 0, i64 10
  %37 = load i8, ptr %36, align 1, !tbaa !10
  %38 = zext i8 %37 to i32
  store i32 %38, ptr %12, align 4, !tbaa !11
  %39 = getelementptr inbounds [13 x i8], ptr %7, i64 0, i64 11
  %40 = load i8, ptr %39, align 1, !tbaa !10
  %41 = zext i8 %40 to i32
  store i32 %41, ptr %13, align 4, !tbaa !11
  %42 = getelementptr inbounds [13 x i8], ptr %7, i64 0, i64 12
  %43 = load i8, ptr %42, align 1, !tbaa !10
  %44 = zext i8 %43 to i32
  store i32 %44, ptr %14, align 4, !tbaa !11
  %45 = load i32, ptr %8, align 4, !tbaa !11
  %46 = load ptr, ptr %4, align 8, !tbaa !3
  %47 = getelementptr inbounds nuw %struct.png_struct_def, ptr %46, i32 0, i32 38
  store i32 %45, ptr %47, align 4, !tbaa !52
  %48 = load i32, ptr %9, align 4, !tbaa !11
  %49 = load ptr, ptr %4, align 8, !tbaa !3
  %50 = getelementptr inbounds nuw %struct.png_struct_def, ptr %49, i32 0, i32 39
  store i32 %48, ptr %50, align 8, !tbaa !99
  %51 = load i32, ptr %10, align 4, !tbaa !11
  %52 = trunc i32 %51 to i8
  %53 = load ptr, ptr %4, align 8, !tbaa !3
  %54 = getelementptr inbounds nuw %struct.png_struct_def, ptr %53, i32 0, i32 63
  store i8 %52, ptr %54, align 8, !tbaa !101
  %55 = load i32, ptr %14, align 4, !tbaa !11
  %56 = trunc i32 %55 to i8
  %57 = load ptr, ptr %4, align 8, !tbaa !3
  %58 = getelementptr inbounds nuw %struct.png_struct_def, ptr %57, i32 0, i32 59
  store i8 %56, ptr %58, align 4, !tbaa !56
  %59 = load i32, ptr %11, align 4, !tbaa !11
  %60 = trunc i32 %59 to i8
  %61 = load ptr, ptr %4, align 8, !tbaa !3
  %62 = getelementptr inbounds nuw %struct.png_struct_def, ptr %61, i32 0, i32 62
  store i8 %60, ptr %62, align 1, !tbaa !102
  %63 = load i32, ptr %13, align 4, !tbaa !11
  %64 = trunc i32 %63 to i8
  %65 = load ptr, ptr %4, align 8, !tbaa !3
  %66 = getelementptr inbounds nuw %struct.png_struct_def, ptr %65, i32 0, i32 129
  store i8 %64, ptr %66, align 4, !tbaa !112
  %67 = load i32, ptr %12, align 4, !tbaa !11
  %68 = trunc i32 %67 to i8
  %69 = load ptr, ptr %4, align 8, !tbaa !3
  %70 = getelementptr inbounds nuw %struct.png_struct_def, ptr %69, i32 0, i32 137
  store i8 %68, ptr %70, align 8, !tbaa !113
  %71 = load ptr, ptr %4, align 8, !tbaa !3
  %72 = getelementptr inbounds nuw %struct.png_struct_def, ptr %71, i32 0, i32 62
  %73 = load i8, ptr %72, align 1, !tbaa !102
  %74 = zext i8 %73 to i32
  switch i32 %74, label %75 [
    i32 0, label %76
    i32 3, label %76
    i32 2, label %79
    i32 4, label %82
    i32 6, label %85
  ]

75:                                               ; preds = %3
  br label %76

76:                                               ; preds = %3, %3, %75
  %77 = load ptr, ptr %4, align 8, !tbaa !3
  %78 = getelementptr inbounds nuw %struct.png_struct_def, ptr %77, i32 0, i32 66
  store i8 1, ptr %78, align 1, !tbaa !114
  br label %88

79:                                               ; preds = %3
  %80 = load ptr, ptr %4, align 8, !tbaa !3
  %81 = getelementptr inbounds nuw %struct.png_struct_def, ptr %80, i32 0, i32 66
  store i8 3, ptr %81, align 1, !tbaa !114
  br label %88

82:                                               ; preds = %3
  %83 = load ptr, ptr %4, align 8, !tbaa !3
  %84 = getelementptr inbounds nuw %struct.png_struct_def, ptr %83, i32 0, i32 66
  store i8 2, ptr %84, align 1, !tbaa !114
  br label %88

85:                                               ; preds = %3
  %86 = load ptr, ptr %4, align 8, !tbaa !3
  %87 = getelementptr inbounds nuw %struct.png_struct_def, ptr %86, i32 0, i32 66
  store i8 4, ptr %87, align 1, !tbaa !114
  br label %88

88:                                               ; preds = %85, %82, %79, %76
  %89 = load ptr, ptr %4, align 8, !tbaa !3
  %90 = getelementptr inbounds nuw %struct.png_struct_def, ptr %89, i32 0, i32 63
  %91 = load i8, ptr %90, align 8, !tbaa !101
  %92 = zext i8 %91 to i32
  %93 = load ptr, ptr %4, align 8, !tbaa !3
  %94 = getelementptr inbounds nuw %struct.png_struct_def, ptr %93, i32 0, i32 66
  %95 = load i8, ptr %94, align 1, !tbaa !114
  %96 = zext i8 %95 to i32
  %97 = mul nsw i32 %92, %96
  %98 = trunc i32 %97 to i8
  %99 = load ptr, ptr %4, align 8, !tbaa !3
  %100 = getelementptr inbounds nuw %struct.png_struct_def, ptr %99, i32 0, i32 65
  store i8 %98, ptr %100, align 2, !tbaa !84
  %101 = load ptr, ptr %4, align 8, !tbaa !3
  %102 = getelementptr inbounds nuw %struct.png_struct_def, ptr %101, i32 0, i32 65
  %103 = load i8, ptr %102, align 2, !tbaa !84
  %104 = zext i8 %103 to i32
  %105 = icmp sge i32 %104, 8
  br i1 %105, label %106, label %117

106:                                              ; preds = %88
  %107 = load ptr, ptr %4, align 8, !tbaa !3
  %108 = getelementptr inbounds nuw %struct.png_struct_def, ptr %107, i32 0, i32 38
  %109 = load i32, ptr %108, align 4, !tbaa !52
  %110 = zext i32 %109 to i64
  %111 = load ptr, ptr %4, align 8, !tbaa !3
  %112 = getelementptr inbounds nuw %struct.png_struct_def, ptr %111, i32 0, i32 65
  %113 = load i8, ptr %112, align 2, !tbaa !84
  %114 = zext i8 %113 to i64
  %115 = lshr i64 %114, 3
  %116 = mul i64 %110, %115
  br label %129

117:                                              ; preds = %88
  %118 = load ptr, ptr %4, align 8, !tbaa !3
  %119 = getelementptr inbounds nuw %struct.png_struct_def, ptr %118, i32 0, i32 38
  %120 = load i32, ptr %119, align 4, !tbaa !52
  %121 = zext i32 %120 to i64
  %122 = load ptr, ptr %4, align 8, !tbaa !3
  %123 = getelementptr inbounds nuw %struct.png_struct_def, ptr %122, i32 0, i32 65
  %124 = load i8, ptr %123, align 2, !tbaa !84
  %125 = zext i8 %124 to i64
  %126 = mul i64 %121, %125
  %127 = add i64 %126, 7
  %128 = lshr i64 %127, 3
  br label %129

129:                                              ; preds = %117, %106
  %130 = phi i64 [ %116, %106 ], [ %128, %117 ]
  %131 = load ptr, ptr %4, align 8, !tbaa !3
  %132 = getelementptr inbounds nuw %struct.png_struct_def, ptr %131, i32 0, i32 42
  store i64 %130, ptr %132, align 8, !tbaa !97
  %133 = load ptr, ptr %4, align 8, !tbaa !3
  %134 = load ptr, ptr %5, align 8, !tbaa !13
  %135 = load i32, ptr %8, align 4, !tbaa !11
  %136 = load i32, ptr %9, align 4, !tbaa !11
  %137 = load i32, ptr %10, align 4, !tbaa !11
  %138 = load i32, ptr %11, align 4, !tbaa !11
  %139 = load i32, ptr %14, align 4, !tbaa !11
  %140 = load i32, ptr %12, align 4, !tbaa !11
  %141 = load i32, ptr %13, align 4, !tbaa !11
  call void @png_set_IHDR(ptr noundef %133, ptr noundef %134, i32 noundef %135, i32 noundef %136, i32 noundef %137, i32 noundef %138, i32 noundef %139, i32 noundef %140, i32 noundef %141)
  call void @llvm.lifetime.end.p0(i64 4, ptr %14) #7
  call void @llvm.lifetime.end.p0(i64 4, ptr %13) #7
  call void @llvm.lifetime.end.p0(i64 4, ptr %12) #7
  call void @llvm.lifetime.end.p0(i64 4, ptr %11) #7
  call void @llvm.lifetime.end.p0(i64 4, ptr %10) #7
  call void @llvm.lifetime.end.p0(i64 4, ptr %9) #7
  call void @llvm.lifetime.end.p0(i64 4, ptr %8) #7
  call void @llvm.lifetime.end.p0(i64 13, ptr %7) #7
  ret i32 3
}