; Function Attrs: nounwind uwtable
define internal noundef i32 @png_handle_IHDR(ptr noalias noundef %0, ptr noalias noundef %1, i32 %2) #0 {
png_crc_read.exit:
  %3 = alloca [13 x i8], align 1
  call void @llvm.lifetime.start.p0(i64 13, ptr nonnull %3) #12
  %4 = getelementptr inbounds nuw i8, ptr %0, i64 300
  %5 = load i32, ptr %4, align 4, !tbaa !24
  %6 = or i32 %5, 1
  store i32 %6, ptr %4, align 4, !tbaa !24
  call void @png_read_data(ptr noundef nonnull %0, ptr noundef nonnull %3, i64 noundef 13) #12
  call void @png_calculate_crc(ptr noundef nonnull %0, ptr noundef nonnull %3, i64 noundef 13) #12
  %7 = call fastcc range(i32 0, 2) i32 @png_crc_finish_critical(ptr noundef nonnull %0, i32 noundef 0, i32 noundef 0)
  %8 = load i8, ptr %3, align 1, !tbaa !3, !noalias !133
  %9 = zext i8 %8 to i32
  %10 = shl nuw i32 %9, 24
  %11 = icmp slt i32 %10, 0
  br i1 %11, label %12, label %png_get_uint_31.exit

12:                                               ; preds = %png_crc_read.exit
  call void @png_error(ptr noundef nonnull %0, ptr noundef nonnull @.str) #11
  unreachable

png_get_uint_31.exit:                             ; preds = %png_crc_read.exit
  %13 = getelementptr inbounds nuw i8, ptr %3, i64 1
  %14 = load i8, ptr %13, align 1, !tbaa !3, !noalias !133
  %15 = zext i8 %14 to i32
  %16 = shl nuw nsw i32 %15, 16
  %17 = getelementptr inbounds nuw i8, ptr %3, i64 2
  %18 = load i8, ptr %17, align 1, !tbaa !3, !noalias !133
  %19 = zext i8 %18 to i32
  %20 = shl nuw nsw i32 %19, 8
  %21 = getelementptr inbounds nuw i8, ptr %3, i64 3
  %22 = load i8, ptr %21, align 1, !tbaa !3, !noalias !133
  %23 = zext i8 %22 to i32
  %24 = or disjoint i32 %16, %23
  %25 = or disjoint i32 %24, %20
  %26 = or disjoint i32 %25, %10
  %27 = getelementptr inbounds nuw i8, ptr %3, i64 4
  %28 = load i8, ptr %27, align 1, !tbaa !3, !noalias !136
  %29 = zext i8 %28 to i32
  %30 = shl nuw i32 %29, 24
  %31 = icmp slt i32 %30, 0
  br i1 %31, label %32, label %png_get_uint_31.exit41

32:                                               ; preds = %png_get_uint_31.exit
  call void @png_error(ptr noundef nonnull %0, ptr noundef nonnull @.str) #11
  unreachable

png_get_uint_31.exit41:                           ; preds = %png_get_uint_31.exit
  %33 = getelementptr inbounds nuw i8, ptr %3, i64 5
  %34 = load i8, ptr %33, align 1, !tbaa !3, !noalias !136
  %35 = zext i8 %34 to i32
  %36 = shl nuw nsw i32 %35, 16
  %37 = getelementptr inbounds nuw i8, ptr %3, i64 6
  %38 = load i8, ptr %37, align 1, !tbaa !3, !noalias !136
  %39 = zext i8 %38 to i32
  %40 = shl nuw nsw i32 %39, 8
  %41 = getelementptr inbounds nuw i8, ptr %3, i64 7
  %42 = load i8, ptr %41, align 1, !tbaa !3, !noalias !136
  %43 = zext i8 %42 to i32
  %44 = or disjoint i32 %36, %43
  %45 = or disjoint i32 %44, %40
  %46 = or disjoint i32 %45, %30
  %47 = getelementptr inbounds nuw i8, ptr %3, i64 8
  %48 = load i8, ptr %47, align 1, !tbaa !3
  %49 = getelementptr inbounds nuw i8, ptr %3, i64 9
  %50 = load i8, ptr %49, align 1, !tbaa !3
  %51 = getelementptr inbounds nuw i8, ptr %3, i64 10
  %52 = load i8, ptr %51, align 1, !tbaa !3
  %53 = getelementptr inbounds nuw i8, ptr %3, i64 11
  %54 = load i8, ptr %53, align 1, !tbaa !3
  %55 = getelementptr inbounds nuw i8, ptr %3, i64 12
  %56 = load i8, ptr %55, align 1, !tbaa !3
  %57 = getelementptr inbounds nuw i8, ptr %0, i64 508
  store i32 %26, ptr %57, align 4, !tbaa !54
  %58 = getelementptr inbounds nuw i8, ptr %0, i64 512
  store i32 %46, ptr %58, align 8, !tbaa !118
  %59 = getelementptr inbounds nuw i8, ptr %0, i64 624
  store i8 %48, ptr %59, align 8, !tbaa !123
  %60 = getelementptr inbounds nuw i8, ptr %0, i64 620
  store i8 %56, ptr %60, align 4, !tbaa !58
  %61 = getelementptr inbounds nuw i8, ptr %0, i64 623
  store i8 %50, ptr %61, align 1, !tbaa !124
  %62 = getelementptr inbounds nuw i8, ptr %0, i64 1052
  store i8 %54, ptr %62, align 4, !tbaa !139
  %63 = getelementptr inbounds nuw i8, ptr %0, i64 1112
  store i8 %52, ptr %63, align 8, !tbaa !140
  %64 = getelementptr inbounds nuw i8, ptr %0, i64 627
  %65 = icmp ult i8 %50, 7
  %switch.cast = zext i8 %50 to i56
  %switch.shiftamt = shl nuw nsw i56 %switch.cast, 3
  %switch.downshift = lshr i56 1127008025379073, %switch.shiftamt
  %switch.masked = trunc i56 %switch.downshift to i8
  %.sink = select i1 %65, i8 %switch.masked, i8 1
  store i8 %.sink, ptr %64, align 1, !tbaa !141
  %66 = mul i8 %.sink, %48
  %67 = getelementptr inbounds nuw i8, ptr %0, i64 626
  store i8 %66, ptr %67, align 2, !tbaa !81
  %68 = icmp ugt i8 %66, 7
  %69 = zext nneg i32 %26 to i64
  br i1 %68, label %70, label %74

70:                                               ; preds = %png_get_uint_31.exit41
  %71 = lshr i8 %66, 3
  %72 = zext nneg i8 %71 to i64
  %73 = mul nuw nsw i64 %72, %69
  br label %79

74:                                               ; preds = %png_get_uint_31.exit41
  %75 = zext nneg i8 %66 to i64
  %76 = mul nuw nsw i64 %75, %69
  %77 = add nuw nsw i64 %76, 7
  %78 = lshr i64 %77, 3
  br label %79

79:                                               ; preds = %74, %70
  %80 = phi i64 [ %73, %70 ], [ %78, %74 ]
  %81 = zext i8 %56 to i32
  %82 = zext i8 %54 to i32
  %83 = zext i8 %52 to i32
  %84 = zext i8 %50 to i32
  %85 = zext i8 %48 to i32
  %86 = getelementptr inbounds nuw i8, ptr %0, i64 528
  store i64 %80, ptr %86, align 8, !tbaa !116
  call void @png_set_IHDR(ptr noundef nonnull %0, ptr noundef %1, i32 noundef %26, i32 noundef %46, i32 noundef %85, i32 noundef %84, i32 noundef %81, i32 noundef %83, i32 noundef %82) #12
  call void @llvm.lifetime.end.p0(i64 13, ptr nonnull %3) #12
  ret i32 3
}